target datalayout = "e-m:e-p270:32:32-p271:32:32-p272:64:64-i64:64-i128:128-f80:128-n8:16:32:64-S128"
target triple = "x86_64-pc-linux-gnu"

%struct.SDL_Property = type { i32, %union.anon, ptr, ptr, ptr }
%union.anon = type { ptr }

; Function Attrs: nounwind uwtable
define hidden zeroext i1 @SDL_SetNumberProperty_REAL(i32 noundef %0, ptr noundef %1, i64 noundef %2) #0 {
  %4 = alloca i1, align 1
  %5 = alloca i32, align 4
  %6 = alloca ptr, align 8
  %7 = alloca i64, align 8
  %8 = alloca ptr, align 8
  %9 = alloca i32, align 4
  store i32 %0, ptr %5, align 4
  store ptr %1, ptr %6, align 8
  store i64 %2, ptr %7, align 8
  call void @llvm.lifetime.start.p0(i64 8, ptr %8) #6
  %10 = call noalias ptr @SDL_calloc_REAL(i64 noundef 1, i64 noundef 40) #7
  store ptr %10, ptr %8, align 8
  %11 = load ptr, ptr %8, align 8
  %12 = icmp ne ptr %11, null
  br i1 %12, label %14, label %13

13:                                               ; preds = %3
  store i1 false, ptr %4, align 1
  store i32 1, ptr %9, align 4
  br label %24

14:                                               ; preds = %3
  %15 = load ptr, ptr %8, align 8
  %16 = getelementptr inbounds nuw %struct.SDL_Property, ptr %15, i32 0, i32 0
  store i32 3, ptr %16, align 8
  %17 = load i64, ptr %7, align 8
  %18 = load ptr, ptr %8, align 8
  %19 = getelementptr inbounds nuw %struct.SDL_Property, ptr %18, i32 0, i32 1
  store i64 %17, ptr %19, align 8
  %20 = load i32, ptr %5, align 4
  %21 = load ptr, ptr %6, align 8
  %22 = load ptr, ptr %8, align 8
  %23 = call zeroext i1 @SDL_PrivateSetProperty(i32 noundef %20, ptr noundef %21, ptr noundef %22)
  store i1 %23, ptr %4, align 1
  store i32 1, ptr %9, align 4
  br label %24

24:                                               ; preds = %14, %13
  call void @llvm.lifetime.end.p0(i64 8, ptr %8) #6
  %25 = load i1, ptr %4, align 1
  ret i1 %25
}